; Function Attrs: mustprogress nounwind uwtable
define dso_local void @_ZN4llvm3pdb21NativeTypeFunctionSigC2ERNS0_13NativeSessionEjNS_8codeview9TypeIndexENS4_20MemberFunctionRecordE(ptr noundef nonnull align 8 dereferenceable(97) %0, ptr noundef nonnull align 8 dereferenceable(584) %1, i32 noundef %2, i32 %3, ptr nocapture noundef readonly byval(%"class.llvm::codeview::MemberFunctionRecord") align 8 %4) unnamed_addr #0 align 2 {
  tail call void @_ZN4llvm3pdb15NativeRawSymbolC2ERNS0_13NativeSessionENS0_11PDB_SymTypeEj(ptr noundef nonnull align 8 dereferenceable(24) %0, ptr noundef nonnull align 8 dereferenceable(584) %1, i32 noundef 13, i32 noundef %2) #14
  store ptr getelementptr inbounds inrange(-16, 1448) (i8, ptr @_ZTVN4llvm3pdb21NativeTypeFunctionSigE, i64 16), ptr %0, align 8
  %6 = getelementptr inbounds nuw i8, ptr %0, i64 24
  call void @llvm.memcpy.p0.p0.i64(ptr noundef nonnull align 8 dereferenceable(28) %6, ptr noundef nonnull align 8 dereferenceable(28) %4, i64 28, i1 false)
  %7 = getelementptr inbounds nuw i8, ptr %0, i64 52
  store i32 0, ptr %7, align 4
  %8 = getelementptr inbounds nuw i8, ptr %0, i64 56
  store i32 %3, ptr %8, align 8
  %9 = getelementptr inbounds i8, ptr %0, i64 72
  tail call void @llvm.memset.p0.i64(ptr noundef nonnull align 8 dereferenceable(24) %9, i8 0, i64 24, i1 false)
  %10 = getelementptr inbounds nuw i8, ptr %0, i64 96
  store i8 1, ptr %10, align 8
  ret void
}